target datalayout = "e-m:e-p270:32:32-p271:32:32-p272:64:64-i64:64-i128:128-f80:128-n8:16:32:64-S128"
target triple = "x86_64-pc-linux-gnu"

@.str.4 = private unnamed_addr constant [11 x i8] c"port_mgr.c\00", align 1
@.str.21 = private unnamed_addr constant [5 x i8] c"[%s]\00", align 1
@__func__._rebuild_port_array = private unnamed_addr constant [20 x i8] c"_rebuild_port_array\00", align 1

; Function Attrs: inlinehint nounwind willreturn memory(read) uwtable
define available_externally i32 @atoi(ptr noundef nonnull %0) #5 {
  %2 = alloca ptr, align 8
  store ptr %0, ptr %2, align 8
  %3 = load ptr, ptr %2, align 8
  %4 = call i64 @strtol(ptr noundef %3, ptr noundef null, i32 noundef 10) #6
  %5 = trunc i64 %4 to i32
  ret i32 %5
}

; Function Attrs: nounwind uwtable
define internal i32 @_rebuild_port_array(ptr noundef %0, ptr noundef %1, ptr noundef %2) #0 {
  %4 = alloca i32, align 4
  %5 = alloca ptr, align 8
  %6 = alloca ptr, align 8
  %7 = alloca ptr, align 8
  %8 = alloca i32, align 4
  %9 = alloca ptr, align 8
  %10 = alloca ptr, align 8
  %11 = alloca i32, align 4
  store ptr %0, ptr %5, align 8
  store ptr %1, ptr %6, align 8
  store ptr %2, ptr %7, align 8
  call void @llvm.lifetime.start.p0(i64 4, ptr %8) #6
  call void @llvm.lifetime.start.p0(i64 8, ptr %9) #6
  call void @llvm.lifetime.start.p0(i64 8, ptr %10) #6
  %12 = load ptr, ptr %5, align 8
  %13 = call ptr (ptr, ...) @xstrdup_printf(ptr noundef @.str.21, ptr noundef %12)
  store ptr %13, ptr %9, align 8
  %14 = load ptr, ptr %9, align 8
  %15 = call ptr @hostlist_create(ptr noundef %14)
  store ptr %15, ptr %10, align 8
  call void @slurm_xfree(ptr noundef %9)
  %16 = load ptr, ptr %10, align 8
  %17 = icmp ne ptr %16, null
  br i1 %17, label %19, label %18

18:                                               ; preds = %3
  store i32 -1, ptr %4, align 4
  store i32 1, ptr %11, align 4
  br label %57

19:                                               ; preds = %3
  %20 = load ptr, ptr %6, align 8
  %21 = load i16, ptr %20, align 2
  %22 = zext i16 %21 to i64
  %23 = load ptr, ptr %6, align 8
  %24 = load i16, ptr %23, align 2
  %25 = zext i16 %24 to i64
  %26 = call ptr @slurm_xcalloc(i64 noundef %22, i64 noundef %25, i1 noundef zeroext true, i1 noundef zeroext false, ptr noundef @.str.4, i32 noundef 97, ptr noundef @__func__._rebuild_port_array)
  %27 = load ptr, ptr %7, align 8
  store ptr %26, ptr %27, align 8
  %28 = load ptr, ptr %6, align 8
  store i16 0, ptr %28, align 2
  br label %29

29:                                               ; preds = %47, %19
  %30 = load ptr, ptr %10, align 8
  %31 = call ptr @hostlist_shift(ptr noundef %30)
  store ptr %31, ptr %9, align 8
  %32 = icmp ne ptr %31, null
  br i1 %32, label %33, label %49

33:                                               ; preds = %29
  %34 = load ptr, ptr %9, align 8
  %35 = call i32 @atoi(ptr noundef %34) #7
  store i32 %35, ptr %8, align 4
  %36 = load i32, ptr %8, align 4
  %37 = icmp sgt i32 %36, 0
  br i1 %37, label %38, label %47

38:                                               ; preds = %33
  %39 = load i32, ptr %8, align 4
  %40 = load ptr, ptr %7, align 8
  %41 = load ptr, ptr %40, align 8
  %42 = load ptr, ptr %6, align 8
  %43 = load i16, ptr %42, align 2
  %44 = add i16 %43, 1
  store i16 %44, ptr %42, align 2
  %45 = zext i16 %43 to i64
  %46 = getelementptr inbounds nuw i32, ptr %41, i64 %45
  store i32 %39, ptr %46, align 4
  br label %47

47:                                               ; preds = %38, %33
  %48 = load ptr, ptr %9, align 8
  call void @free(ptr noundef %48) #6
  br label %29, !llvm.loop !16

49:                                               ; preds = %29
  %50 = load ptr, ptr %10, align 8
  call void @hostlist_destroy(ptr noundef %50)
  %51 = load ptr, ptr %6, align 8
  %52 = load i16, ptr %51, align 2
  %53 = zext i16 %52 to i32
  %54 = icmp eq i32 %53, 0
  br i1 %54, label %55, label %56

55:                                               ; preds = %49
  store i32 2060, ptr %4, align 4
  store i32 1, ptr %11, align 4
  br label %57

56:                                               ; preds = %49
  store i32 0, ptr %4, align 4
  store i32 1, ptr %11, align 4
  br label %57

57:                                               ; preds = %56, %55, %18
  call void @llvm.lifetime.end.p0(i64 8, ptr %10) #6
  call void @llvm.lifetime.end.p0(i64 8, ptr %9) #6
  call void @llvm.lifetime.end.p0(i64 4, ptr %8) #6
  %58 = load i32, ptr %4, align 4
  ret i32 %58
}