; Function Attrs: nounwind uwtable
define internal fastcc range(i32 -1, 2061) i32 @_rebuild_port_array(ptr noundef nonnull %0, ptr noundef captures(none) %1, ptr noundef captures(none) %2) unnamed_addr #0 {
  %4 = alloca ptr, align 8
  call void @llvm.lifetime.start.p0(i64 8, ptr nonnull %4) #8
  %5 = tail call ptr (ptr, ...) @xstrdup_printf(ptr noundef nonnull @.str.21, ptr noundef nonnull %0) #8
  store ptr %5, ptr %4, align 8
  %6 = tail call ptr @hostlist_create(ptr noundef %5) #8
  call void @slurm_xfree(ptr noundef nonnull %4) #8
  %.not = icmp eq ptr %6, null
  br i1 %.not, label %27, label %7

7:                                                ; preds = %3
  %8 = load i16, ptr %1, align 2
  %9 = zext i16 %8 to i64
  %10 = call ptr @slurm_xcalloc(i64 noundef %9, i64 noundef %9, i1 noundef zeroext true, i1 noundef zeroext false, ptr noundef nonnull @.str.4, i32 noundef 97, ptr noundef nonnull @__func__._rebuild_port_array) #8
  store ptr %10, ptr %2, align 8
  store i16 0, ptr %1, align 2
  %11 = call ptr @hostlist_shift(ptr noundef nonnull %6) #8
  store ptr %11, ptr %4, align 8
  %.not1617 = icmp eq ptr %11, null
  br i1 %.not1617, label %._crit_edge, label %.lr.ph

.lr.ph:                                           ; preds = %7, %22
  %12 = phi ptr [ %24, %22 ], [ %11, %7 ]
  %13 = call i64 @strtol(ptr noundef nonnull captures(none) %12, ptr noundef null, i32 noundef 10) #8
  %14 = trunc i64 %13 to i32
  %15 = icmp sgt i32 %14, 0
  br i1 %15, label %16, label %22

16:                                               ; preds = %.lr.ph
  %17 = load ptr, ptr %2, align 8
  %18 = load i16, ptr %1, align 2
  %19 = add i16 %18, 1
  store i16 %19, ptr %1, align 2
  %20 = zext i16 %18 to i64
  %21 = getelementptr inbounds nuw i32, ptr %17, i64 %20
  store i32 %14, ptr %21, align 4
  br label %22

22:                                               ; preds = %16, %.lr.ph
  %23 = load ptr, ptr %4, align 8
  call void @free(ptr noundef %23) #8
  %24 = call ptr @hostlist_shift(ptr noundef nonnull %6) #8
  store ptr %24, ptr %4, align 8
  %.not16 = icmp eq ptr %24, null
  br i1 %.not16, label %._crit_edge, label %.lr.ph, !llvm.loop !13

._crit_edge:                                      ; preds = %22, %7
  call void @hostlist_destroy(ptr noundef nonnull %6) #8
  %25 = load i16, ptr %1, align 2
  %26 = icmp eq i16 %25, 0
  %. = select i1 %26, i32 2060, i32 0
  br label %27

27:                                               ; preds = %._crit_edge, %3
  %.0 = phi i32 [ -1, %3 ], [ %., %._crit_edge ]
  call void @llvm.lifetime.end.p0(i64 8, ptr nonnull %4) #8
  ret i32 %.0
}